; Function Attrs: mustprogress uwtable
define hidden noundef i32 @_ZN4cvc58internal6theory2uf20CardinalityExtension14getCardinalityENS0_12NodeTemplateILb1EEE(ptr noundef nonnull align 8 dereferenceable(648) %0, ptr noundef readonly captures(none) %1) local_unnamed_addr #4 align 2 personality ptr @__gxx_personality_v0 {
  %3 = alloca %"class.cvc5::internal::NodeTemplate", align 8
  %4 = load ptr, ptr %1, align 8, !tbaa !70
  store ptr %4, ptr %3, align 8, !tbaa !70
  %5 = load i64, ptr %4, align 8
  %6 = lshr i64 %5, 40
  %7 = trunc nuw nsw i64 %6 to i32
  %8 = and i32 %7, 1048575
  %9 = icmp samesign ult i32 %8, 1048574
  br i1 %9, label %10, label %15, !prof !71

10:                                               ; preds = %2
  %11 = add i64 %5, 1099511627776
  %12 = and i64 %11, 1152920405095219200
  %13 = and i64 %5, -1152920405095219201
  %14 = or disjoint i64 %12, %13
  store i64 %14, ptr %4, align 8
  br label %_ZN4cvc58internal12NodeTemplateILb1EEC2ERKS2_.exit

15:                                               ; preds = %2
  %16 = icmp eq i32 %8, 1048574
  br i1 %16, label %17, label %_ZN4cvc58internal12NodeTemplateILb1EEC2ERKS2_.exit, !prof !72

17:                                               ; preds = %15
  %18 = or i64 %5, 1152920405095219200
  store i64 %18, ptr %4, align 8
  tail call void @_ZN4cvc58internal4expr9NodeValue20markRefCountMaxedOutEv(ptr noundef nonnull align 8 dereferenceable(24) %4)
  br label %_ZN4cvc58internal12NodeTemplateILb1EEC2ERKS2_.exit

_ZN4cvc58internal12NodeTemplateILb1EEC2ERKS2_.exit: ; preds = %10, %15, %17
  %19 = invoke noundef ptr @_ZN4cvc58internal6theory2uf20CardinalityExtension12getSortModelENS0_12NodeTemplateILb1EEE(ptr noundef nonnull align 8 dereferenceable(648) %0, ptr noundef nonnull %3)
          to label %20 unwind label %37

20:                                               ; preds = %_ZN4cvc58internal12NodeTemplateILb1EEC2ERKS2_.exit
  %21 = load ptr, ptr %3, align 8, !tbaa !70
  %22 = load i64, ptr %21, align 8
  %23 = and i64 %22, 1152920405095219200
  %.not.i.i = icmp eq i64 %23, 1152920405095219200
  br i1 %.not.i.i, label %_ZN4cvc58internal12NodeTemplateILb1EED2Ev.exit, label %24, !prof !72

24:                                               ; preds = %20
  %25 = add i64 %22, 1152920405095219200
  %26 = and i64 %25, 1152920405095219200
  %27 = and i64 %22, -1152920405095219201
  %28 = or disjoint i64 %26, %27
  store i64 %28, ptr %21, align 8
  %29 = icmp eq i64 %26, 0
  br i1 %29, label %30, label %_ZN4cvc58internal12NodeTemplateILb1EED2Ev.exit, !prof !72

30:                                               ; preds = %24
  invoke void @_ZN4cvc58internal4expr9NodeValue15markForDeletionEv(ptr noundef nonnull align 8 dereferenceable(24) %21)
          to label %_ZN4cvc58internal12NodeTemplateILb1EED2Ev.exit unwind label %31

31:                                               ; preds = %30
  %32 = landingpad { ptr, i32 }
          catch ptr null
  %33 = extractvalue { ptr, i32 } %32, 0
  call void @__clang_call_terminate(ptr %33) #28
  unreachable

_ZN4cvc58internal12NodeTemplateILb1EED2Ev.exit:   ; preds = %20, %24, %30
  %.not = icmp eq ptr %19, null
  br i1 %.not, label %39, label %34

34:                                               ; preds = %_ZN4cvc58internal12NodeTemplateILb1EED2Ev.exit
  %35 = getelementptr inbounds nuw i8, ptr %19, i64 648
  %36 = load i32, ptr %35, align 4, !tbaa !158
  br label %39

37:                                               ; preds = %_ZN4cvc58internal12NodeTemplateILb1EEC2ERKS2_.exit
  %38 = landingpad { ptr, i32 }
          cleanup
  call void @_ZN4cvc58internal12NodeTemplateILb1EED2Ev(ptr noundef nonnull align 8 dereferenceable(8) %3) #27
  resume { ptr, i32 } %38

39:                                               ; preds = %_ZN4cvc58internal12NodeTemplateILb1EED2Ev.exit, %34
  %.0 = phi i32 [ %36, %34 ], [ -1, %_ZN4cvc58internal12NodeTemplateILb1EED2Ev.exit ]
  ret i32 %.0
}